; ModuleID = '37/461.c'
source_filename = "37/461.c"
target datalayout = "e-m:e-p270:32:32-p271:32:32-p272:64:64-i64:64-f80:128-n8:16:32:64-S128"
target triple = "x86_64-pc-linux-gnu"

@.str = private unnamed_addr constant [3 x i8] c"%d\00", align 1
@.str.1 = private unnamed_addr constant [4 x i8] c"%c\0A\00", align 1
@.str.2 = private unnamed_addr constant [4 x i8] c"no\0A\00", align 1

; Function Attrs: noinline nounwind uwtable
define dso_local void @main() #0 {
  %1 = alloca [100000 x i8]*, align 8
  %2 = alloca [26 x i32], align 16
  %3 = alloca i32, align 4
  %4 = alloca i32, align 4
  %5 = alloca i32, align 4
  %6 = alloca i32, align 4
  %7 = alloca i32, align 4
  %8 = alloca i32, align 4
  %9 = alloca [10 x i8], align 1
  %10 = alloca i32, align 4
  store i32 0, i32* %5, align 4
  store i32 0, i32* %8, align 4
  %11 = call i32 (i8*, ...) @__isoc99_scanf(i8* getelementptr inbounds ([3 x i8], [3 x i8]* @.str, i64 0, i64 0), i32* %10)
  %12 = getelementptr inbounds [10 x i8], [10 x i8]* %9, i64 0, i64 0
  %13 = call i32 (i8*, ...) bitcast (i32 (...)* @gets to i32 (i8*, ...)*)(i8* %12)
  %14 = call noalias i8* @malloc(i64 2000000) #4
  %15 = bitcast i8* %14 to [100000 x i8]*
  store [100000 x i8]* %15, [100000 x i8]** %1, align 8
  store i32 0, i32* %6, align 4
  br label %16

16:                                               ; preds = %27, %0
  %17 = load i32, i32* %6, align 4
  %18 = load i32, i32* %10, align 4
  %19 = icmp slt i32 %17, %18
  br i1 %19, label %20, label %30

20:                                               ; preds = %16
  %21 = load [100000 x i8]*, [100000 x i8]** %1, align 8
  %22 = load i32, i32* %6, align 4
  %23 = sext i32 %22 to i64
  %24 = getelementptr inbounds [100000 x i8], [100000 x i8]* %21, i64 %23
  %25 = getelementptr inbounds [100000 x i8], [100000 x i8]* %24, i64 0, i64 0
  %26 = call i32 (i8*, ...) bitcast (i32 (...)* @gets to i32 (i8*, ...)*)(i8* %25)
  br label %27

27:                                               ; preds = %20
  %28 = load i32, i32* %6, align 4
  %29 = add nsw i32 %28, 1
  store i32 %29, i32* %6, align 4
  br label %16

30:                                               ; preds = %16
  store i32 0, i32* %6, align 4
  br label %31

31:                                               ; preds = %117, %30
  %32 = load i32, i32* %6, align 4
  %33 = load i32, i32* %10, align 4
  %34 = icmp slt i32 %32, %33
  br i1 %34, label %35, label %120

35:                                               ; preds = %31
  store i32 0, i32* %8, align 4
  store i32 0, i32* %7, align 4
  br label %36

36:                                               ; preds = %43, %35
  %37 = load i32, i32* %7, align 4
  %38 = icmp slt i32 %37, 25
  br i1 %38, label %39, label %46

39:                                               ; preds = %36
  %40 = load i32, i32* %7, align 4
  %41 = sext i32 %40 to i64
  %42 = getelementptr inbounds [26 x i32], [26 x i32]* %2, i64 0, i64 %41
  store i32 0, i32* %42, align 4
  br label %43

43:                                               ; preds = %39
  %44 = load i32, i32* %7, align 4
  %45 = add nsw i32 %44, 1
  store i32 %45, i32* %7, align 4
  br label %36

46:                                               ; preds = %36
  %47 = load [100000 x i8]*, [100000 x i8]** %1, align 8
  %48 = load i32, i32* %6, align 4
  %49 = sext i32 %48 to i64
  %50 = getelementptr inbounds [100000 x i8], [100000 x i8]* %47, i64 %49
  %51 = getelementptr inbounds [100000 x i8], [100000 x i8]* %50, i64 0, i64 0
  %52 = call i64 @strlen(i8* %51) #5
  %53 = trunc i64 %52 to i32
  store i32 %53, i32* %3, align 4
  store i32 0, i32* %4, align 4
  br label %54

54:                                               ; preds = %78, %46
  %55 = load i32, i32* %4, align 4
  %56 = load i32, i32* %3, align 4
  %57 = icmp slt i32 %55, %56
  br i1 %57, label %58, label %81

58:                                               ; preds = %54
  %59 = load [100000 x i8]*, [100000 x i8]** %1, align 8
  %60 = load i32, i32* %6, align 4
  %61 = sext i32 %60 to i64
  %62 = getelementptr inbounds [100000 x i8], [100000 x i8]* %59, i64 %61
  %63 = getelementptr inbounds [100000 x i8], [100000 x i8]* %62, i64 0, i64 0
  %64 = load i32, i32* %4, align 4
  %65 = sext i32 %64 to i64
  %66 = getelementptr inbounds i8, i8* %63, i64 %65
  %67 = load i8, i8* %66, align 1
  %68 = sext i8 %67 to i32
  %69 = sub nsw i32 %68, 97
  store i32 %69, i32* %5, align 4
  %70 = load i32, i32* %5, align 4
  %71 = sext i32 %70 to i64
  %72 = getelementptr inbounds [26 x i32], [26 x i32]* %2, i64 0, i64 %71
  %73 = load i32, i32* %72, align 4
  %74 = add nsw i32 %73, 1
  %75 = load i32, i32* %5, align 4
  %76 = sext i32 %75 to i64
  %77 = getelementptr inbounds [26 x i32], [26 x i32]* %2, i64 0, i64 %76
  store i32 %74, i32* %77, align 4
  br label %78

78:                                               ; preds = %58
  %79 = load i32, i32* %4, align 4
  %80 = add nsw i32 %79, 1
  store i32 %80, i32* %4, align 4
  br label %54

81:                                               ; preds = %54
  store i32 0, i32* %4, align 4
  br label %82

82:                                               ; preds = %108, %81
  %83 = load i32, i32* %4, align 4
  %84 = load i32, i32* %3, align 4
  %85 = icmp slt i32 %83, %84
  br i1 %85, label %86, label %111

86:                                               ; preds = %82
  %87 = load [100000 x i8]*, [100000 x i8]** %1, align 8
  %88 = load i32, i32* %6, align 4
  %89 = sext i32 %88 to i64
  %90 = getelementptr inbounds [100000 x i8], [100000 x i8]* %87, i64 %89
  %91 = getelementptr inbounds [100000 x i8], [100000 x i8]* %90, i64 0, i64 0
  %92 = load i32, i32* %4, align 4
  %93 = sext i32 %92 to i64
  %94 = getelementptr inbounds i8, i8* %91, i64 %93
  %95 = load i8, i8* %94, align 1
  %96 = sext i8 %95 to i32
  %97 = sub nsw i32 %96, 97
  store i32 %97, i32* %5, align 4
  %98 = load i32, i32* %5, align 4
  %99 = sext i32 %98 to i64
  %100 = getelementptr inbounds [26 x i32], [26 x i32]* %2, i64 0, i64 %99
  %101 = load i32, i32* %100, align 4
  %102 = icmp eq i32 %101, 1
  br i1 %102, label %103, label %107

103:                                              ; preds = %86
  store i32 1, i32* %8, align 4
  %104 = load i32, i32* %5, align 4
  %105 = add nsw i32 %104, 97
  %106 = call i32 (i8*, ...) @printf(i8* getelementptr inbounds ([4 x i8], [4 x i8]* @.str.1, i64 0, i64 0), i32 %105)
  br label %111

107:                                              ; preds = %86
  br label %108

108:                                              ; preds = %107
  %109 = load i32, i32* %4, align 4
  %110 = add nsw i32 %109, 1
  store i32 %110, i32* %4, align 4
  br label %82

111:                                              ; preds = %103, %82
  %112 = load i32, i32* %8, align 4
  %113 = icmp eq i32 %112, 0
  br i1 %113, label %114, label %116

114:                                              ; preds = %111
  %115 = call i32 (i8*, ...) @printf(i8* getelementptr inbounds ([4 x i8], [4 x i8]* @.str.2, i64 0, i64 0))
  br label %116

116:                                              ; preds = %114, %111
  br label %117

117:                                              ; preds = %116
  %118 = load i32, i32* %6, align 4
  %119 = add nsw i32 %118, 1
  store i32 %119, i32* %6, align 4
  br label %31

120:                                              ; preds = %31
  ret void
}

declare dso_local i32 @__isoc99_scanf(i8*, ...) #1

declare dso_local i32 @gets(...) #1

; Function Attrs: nounwind
declare dso_local noalias i8* @malloc(i64) #2

; Function Attrs: nounwind readonly
declare dso_local i64 @strlen(i8*) #3

declare dso_local i32 @printf(i8*, ...) #1


!llvm.module.flags = !{!0}
!llvm.ident = !{!1}

!0 = !{i32 1, !"wchar_size", i32 4}
!1 = !{!"clang version 10.0.0-4ubuntu1 "}
