; ModuleID = 'source-C-CXX/36/461.c'
source_filename = "source-C-CXX/36/461.c"
target datalayout = "e-m:e-p270:32:32-p271:32:32-p272:64:64-i64:64-f80:128-n8:16:32:64-S128"
target triple = "x86_64-pc-linux-gnu"

@.str = private unnamed_addr constant [3 x i8] c"%d\00", align 1
@.str.1 = private unnamed_addr constant [4 x i8] c"%c\0A\00", align 1
@str = private unnamed_addr constant [3 x i8] c"no\00", align 1

; Function Attrs: nounwind sspstrong uwtable
define dso_local void @main() local_unnamed_addr #0 {
  %1 = alloca [26 x i32], align 16
  %2 = bitcast [26 x i32]* %1 to i8*
  %3 = alloca [10 x i8], align 1
  %4 = alloca i32, align 4
  call void @llvm.lifetime.start.p0i8(i64 104, i8* nonnull %2) #8
  %5 = getelementptr inbounds [10 x i8], [10 x i8]* %3, i64 0, i64 0
  call void @llvm.lifetime.start.p0i8(i64 10, i8* nonnull %5) #8
  %6 = bitcast i32* %4 to i8*
  call void @llvm.lifetime.start.p0i8(i64 4, i8* nonnull %6) #8
  %7 = call i32 (i8*, ...) @__isoc99_scanf(i8* getelementptr inbounds ([3 x i8], [3 x i8]* @.str, i64 0, i64 0), i32* nonnull %4)
  %8 = call i32 (i8*, ...) bitcast (i32 (...)* @gets to i32 (i8*, ...)*)(i8* nonnull %5) #8
  %9 = call noalias align 16 dereferenceable_or_null(2000000) i8* @malloc(i64 2000000) #8
  %10 = bitcast i8* %9 to [100000 x i8]*
  %11 = load i32, i32* %4, align 4, !tbaa !5
  %12 = icmp sgt i32 %11, 0
  br i1 %12, label %15, label %93

13:                                               ; preds = %15
  %14 = icmp sgt i32 %20, 0
  br i1 %14, label %23, label %93

15:                                               ; preds = %0, %15
  %16 = phi i64 [ %19, %15 ], [ 0, %0 ]
  %17 = getelementptr inbounds [100000 x i8], [100000 x i8]* %10, i64 %16, i64 0
  %18 = call i32 (i8*, ...) bitcast (i32 (...)* @gets to i32 (i8*, ...)*)(i8* %17) #8
  %19 = add nuw nsw i64 %16, 1
  %20 = load i32, i32* %4, align 4, !tbaa !5
  %21 = sext i32 %20 to i64
  %22 = icmp slt i64 %19, %21
  br i1 %22, label %15, label %13, !llvm.loop !9

23:                                               ; preds = %13, %88
  %24 = phi i64 [ %89, %88 ], [ 0, %13 ]
  call void @llvm.memset.p0i8.i64(i8* noundef nonnull align 16 dereferenceable(100) %2, i8 0, i64 100, i1 false)
  %25 = getelementptr inbounds [100000 x i8], [100000 x i8]* %10, i64 %24, i64 0
  %26 = call i64 @strlen(i8* noundef nonnull dereferenceable(1) %25) #9
  %27 = trunc i64 %26 to i32
  %28 = icmp sgt i32 %27, 0
  br i1 %28, label %29, label %86

29:                                               ; preds = %23
  %30 = shl i64 %26, 32
  %31 = and i64 %26, 1
  %32 = icmp eq i64 %30, 4294967296
  br i1 %32, label %36, label %33

33:                                               ; preds = %29
  %34 = ashr exact i64 %30, 32
  %35 = sub nsw i64 %34, %31
  br label %50

36:                                               ; preds = %50, %29
  %37 = phi i64 [ 0, %29 ], [ %68, %50 ]
  %38 = icmp eq i64 %31, 0
  br i1 %38, label %47, label %39

39:                                               ; preds = %36
  %40 = getelementptr inbounds [100000 x i8], [100000 x i8]* %10, i64 %24, i64 %37
  %41 = load i8, i8* %40, align 1, !tbaa !11
  %42 = sext i8 %41 to i64
  %43 = add nsw i64 %42, -97
  %44 = getelementptr inbounds [26 x i32], [26 x i32]* %1, i64 0, i64 %43
  %45 = load i32, i32* %44, align 4, !tbaa !5
  %46 = add nsw i32 %45, 1
  store i32 %46, i32* %44, align 4, !tbaa !5
  br label %47

47:                                               ; preds = %36, %39
  br i1 %28, label %48, label %86

48:                                               ; preds = %47
  %49 = and i64 %26, 4294967295
  br label %73

50:                                               ; preds = %50, %33
  %51 = phi i64 [ 0, %33 ], [ %68, %50 ]
  %52 = phi i64 [ %35, %33 ], [ %69, %50 ]
  %53 = getelementptr inbounds [100000 x i8], [100000 x i8]* %10, i64 %24, i64 %51
  %54 = load i8, i8* %53, align 2, !tbaa !11
  %55 = sext i8 %54 to i64
  %56 = add nsw i64 %55, -97
  %57 = getelementptr inbounds [26 x i32], [26 x i32]* %1, i64 0, i64 %56
  %58 = load i32, i32* %57, align 4, !tbaa !5
  %59 = add nsw i32 %58, 1
  store i32 %59, i32* %57, align 4, !tbaa !5
  %60 = or i64 %51, 1
  %61 = getelementptr inbounds [100000 x i8], [100000 x i8]* %10, i64 %24, i64 %60
  %62 = load i8, i8* %61, align 1, !tbaa !11
  %63 = sext i8 %62 to i64
  %64 = add nsw i64 %63, -97
  %65 = getelementptr inbounds [26 x i32], [26 x i32]* %1, i64 0, i64 %64
  %66 = load i32, i32* %65, align 4, !tbaa !5
  %67 = add nsw i32 %66, 1
  store i32 %67, i32* %65, align 4, !tbaa !5
  %68 = add nuw nsw i64 %51, 2
  %69 = add i64 %52, -2
  %70 = icmp eq i64 %69, 0
  br i1 %70, label %36, label %50, !llvm.loop !12

71:                                               ; preds = %73
  %72 = icmp eq i64 %82, %49
  br i1 %72, label %86, label %73, !llvm.loop !13

73:                                               ; preds = %48, %71
  %74 = phi i64 [ 0, %48 ], [ %82, %71 ]
  %75 = getelementptr inbounds [100000 x i8], [100000 x i8]* %10, i64 %24, i64 %74
  %76 = load i8, i8* %75, align 1, !tbaa !11
  %77 = sext i8 %76 to i64
  %78 = add nsw i64 %77, -97
  %79 = getelementptr inbounds [26 x i32], [26 x i32]* %1, i64 0, i64 %78
  %80 = load i32, i32* %79, align 4, !tbaa !5
  %81 = icmp eq i32 %80, 1
  %82 = add nuw nsw i64 %74, 1
  br i1 %81, label %83, label %71

83:                                               ; preds = %73
  %84 = sext i8 %76 to i32
  %85 = call i32 (i8*, ...) @printf(i8* nonnull dereferenceable(1) getelementptr inbounds ([4 x i8], [4 x i8]* @.str.1, i64 0, i64 0), i32 %84)
  br label %88

86:                                               ; preds = %71, %23, %47
  %87 = call i32 @puts(i8* nonnull dereferenceable(1) getelementptr inbounds ([3 x i8], [3 x i8]* @str, i64 0, i64 0))
  br label %88

88:                                               ; preds = %83, %86
  %89 = add nuw nsw i64 %24, 1
  %90 = load i32, i32* %4, align 4, !tbaa !5
  %91 = sext i32 %90 to i64
  %92 = icmp slt i64 %89, %91
  br i1 %92, label %23, label %93, !llvm.loop !14

93:                                               ; preds = %88, %0, %13
  call void @llvm.lifetime.end.p0i8(i64 4, i8* nonnull %6) #8
  call void @llvm.lifetime.end.p0i8(i64 10, i8* nonnull %5) #8
  call void @llvm.lifetime.end.p0i8(i64 104, i8* nonnull %2) #8
  ret void
}

; Function Attrs: argmemonly mustprogress nofree nosync nounwind willreturn
declare void @llvm.lifetime.start.p0i8(i64 immarg, i8* nocapture) #1

; Function Attrs: nofree nounwind
declare noundef i32 @__isoc99_scanf(i8* nocapture noundef readonly, ...) local_unnamed_addr #2

declare i32 @gets(...) local_unnamed_addr #3

; Function Attrs: inaccessiblememonly mustprogress nofree nounwind willreturn
declare noalias noundef align 16 i8* @malloc(i64 noundef) local_unnamed_addr #4

; Function Attrs: argmemonly mustprogress nofree nounwind readonly willreturn
declare i64 @strlen(i8* nocapture) local_unnamed_addr #5

; Function Attrs: nofree nounwind
declare noundef i32 @printf(i8* nocapture noundef readonly, ...) local_unnamed_addr #2

; Function Attrs: argmemonly mustprogress nofree nosync nounwind willreturn
declare void @llvm.lifetime.end.p0i8(i64 immarg, i8* nocapture) #1

; Function Attrs: nofree nounwind
declare noundef i32 @puts(i8* nocapture noundef readonly) local_unnamed_addr #6

; Function Attrs: argmemonly nofree nounwind willreturn writeonly
declare void @llvm.memset.p0i8.i64(i8* nocapture writeonly, i8, i64, i1 immarg) #7


!llvm.module.flags = !{!0, !1, !2, !3}
!llvm.ident = !{!4}

!0 = !{i32 1, !"wchar_size", i32 4}
!1 = !{i32 7, !"PIC Level", i32 2}
!2 = !{i32 7, !"PIE Level", i32 2}
!3 = !{i32 7, !"uwtable", i32 1}
!4 = !{!"clang version 13.0.0"}
!5 = !{!6, !6, i64 0}
!6 = !{!"int", !7, i64 0}
!7 = !{!"omnipotent char", !8, i64 0}
!8 = !{!"Simple C/C++ TBAA"}
!9 = distinct !{!9, !10}
!10 = !{!"llvm.loop.mustprogress"}
!11 = !{!7, !7, i64 0}
!12 = distinct !{!12, !10}
!13 = distinct !{!13, !10}
!14 = distinct !{!14, !10}
